target datalayout = "e-m:e-p270:32:32-p271:32:32-p272:64:64-i64:64-i128:128-f80:128-n8:16:32:64-S128"
target triple = "x86_64-pc-linux-gnu"

%struct.pointf_s = type { double, double }

; Function Attrs: inlinehint nounwind uwtable
define internal { double, double } @scale(double noundef %0, double %1, double %2) #6 {
  %4 = alloca %struct.pointf_s, align 8
  %5 = alloca %struct.pointf_s, align 8
  %6 = alloca double, align 8
  %7 = getelementptr inbounds nuw { double, double }, ptr %5, i32 0, i32 0
  store double %1, ptr %7, align 8
  %8 = getelementptr inbounds nuw { double, double }, ptr %5, i32 0, i32 1
  store double %2, ptr %8, align 8
  store double %0, ptr %6, align 8, !tbaa !18
  %9 = load double, ptr %6, align 8, !tbaa !18
  %10 = getelementptr inbounds nuw %struct.pointf_s, ptr %5, i32 0, i32 0
  %11 = load double, ptr %10, align 8, !tbaa !9
  %12 = fmul double %9, %11
  %13 = getelementptr inbounds nuw %struct.pointf_s, ptr %4, i32 0, i32 0
  store double %12, ptr %13, align 8, !tbaa !9
  %14 = load double, ptr %6, align 8, !tbaa !18
  %15 = getelementptr inbounds nuw %struct.pointf_s, ptr %5, i32 0, i32 1
  %16 = load double, ptr %15, align 8, !tbaa !12
  %17 = fmul double %14, %16
  %18 = getelementptr inbounds nuw %struct.pointf_s, ptr %4, i32 0, i32 1
  store double %17, ptr %18, align 8, !tbaa !12
  %19 = load { double, double }, ptr %4, align 8
  ret { double, double } %19
}

; Function Attrs: inlinehint nounwind uwtable
define internal { double, double } @perp(double %0, double %1) #6 {
  %3 = alloca %struct.pointf_s, align 8
  %4 = alloca %struct.pointf_s, align 8
  %5 = getelementptr inbounds nuw { double, double }, ptr %4, i32 0, i32 0
  store double %0, ptr %5, align 8
  %6 = getelementptr inbounds nuw { double, double }, ptr %4, i32 0, i32 1
  store double %1, ptr %6, align 8
  %7 = getelementptr inbounds nuw %struct.pointf_s, ptr %4, i32 0, i32 1
  %8 = load double, ptr %7, align 8, !tbaa !12
  %9 = fneg double %8
  %10 = getelementptr inbounds nuw %struct.pointf_s, ptr %3, i32 0, i32 0
  store double %9, ptr %10, align 8, !tbaa !9
  %11 = getelementptr inbounds nuw %struct.pointf_s, ptr %4, i32 0, i32 0
  %12 = load double, ptr %11, align 8, !tbaa !9
  %13 = getelementptr inbounds nuw %struct.pointf_s, ptr %3, i32 0, i32 1
  store double %12, ptr %13, align 8, !tbaa !12
  %14 = load { double, double }, ptr %3, align 8
  ret { double, double } %14
}

; Function Attrs: inlinehint nounwind uwtable
define internal { double, double } @sub_pointf(double %0, double %1, double %2, double %3) #6 {
  %5 = alloca %struct.pointf_s, align 8
  %6 = alloca %struct.pointf_s, align 8
  %7 = alloca %struct.pointf_s, align 8
  %8 = getelementptr inbounds nuw { double, double }, ptr %6, i32 0, i32 0
  store double %0, ptr %8, align 8
  %9 = getelementptr inbounds nuw { double, double }, ptr %6, i32 0, i32 1
  store double %1, ptr %9, align 8
  %10 = getelementptr inbounds nuw { double, double }, ptr %7, i32 0, i32 0
  store double %2, ptr %10, align 8
  %11 = getelementptr inbounds nuw { double, double }, ptr %7, i32 0, i32 1
  store double %3, ptr %11, align 8
  %12 = getelementptr inbounds nuw %struct.pointf_s, ptr %6, i32 0, i32 0
  %13 = load double, ptr %12, align 8, !tbaa !9
  %14 = getelementptr inbounds nuw %struct.pointf_s, ptr %7, i32 0, i32 0
  %15 = load double, ptr %14, align 8, !tbaa !9
  %16 = fsub double %13, %15
  %17 = getelementptr inbounds nuw %struct.pointf_s, ptr %5, i32 0, i32 0
  store double %16, ptr %17, align 8, !tbaa !9
  %18 = getelementptr inbounds nuw %struct.pointf_s, ptr %6, i32 0, i32 1
  %19 = load double, ptr %18, align 8, !tbaa !12
  %20 = getelementptr inbounds nuw %struct.pointf_s, ptr %7, i32 0, i32 1
  %21 = load double, ptr %20, align 8, !tbaa !12
  %22 = fsub double %19, %21
  %23 = getelementptr inbounds nuw %struct.pointf_s, ptr %5, i32 0, i32 1
  store double %22, ptr %23, align 8, !tbaa !12
  %24 = load { double, double }, ptr %5, align 8
  ret { double, double } %24
}

; Function Attrs: nounwind uwtable
define i32 @line_intersect(double %0, double %1, double %2, double %3, double %4, double %5, double %6, double %7, ptr noundef %8) #0 {
  %10 = alloca i32, align 4
  %11 = alloca %struct.pointf_s, align 8
  %12 = alloca %struct.pointf_s, align 8
  %13 = alloca %struct.pointf_s, align 8
  %14 = alloca %struct.pointf_s, align 8
  %15 = alloca ptr, align 8
  %16 = alloca %struct.pointf_s, align 8
  %17 = alloca %struct.pointf_s, align 8
  %18 = alloca %struct.pointf_s, align 8
  %19 = alloca double, align 8
  %20 = alloca double, align 8
  %21 = alloca i32, align 4
  %22 = alloca %struct.pointf_s, align 8
  %23 = alloca %struct.pointf_s, align 8
  %24 = getelementptr inbounds nuw { double, double }, ptr %11, i32 0, i32 0
  store double %0, ptr %24, align 8
  %25 = getelementptr inbounds nuw { double, double }, ptr %11, i32 0, i32 1
  store double %1, ptr %25, align 8
  %26 = getelementptr inbounds nuw { double, double }, ptr %12, i32 0, i32 0
  store double %2, ptr %26, align 8
  %27 = getelementptr inbounds nuw { double, double }, ptr %12, i32 0, i32 1
  store double %3, ptr %27, align 8
  %28 = getelementptr inbounds nuw { double, double }, ptr %13, i32 0, i32 0
  store double %4, ptr %28, align 8
  %29 = getelementptr inbounds nuw { double, double }, ptr %13, i32 0, i32 1
  store double %5, ptr %29, align 8
  %30 = getelementptr inbounds nuw { double, double }, ptr %14, i32 0, i32 0
  store double %6, ptr %30, align 8
  %31 = getelementptr inbounds nuw { double, double }, ptr %14, i32 0, i32 1
  store double %7, ptr %31, align 8
  store ptr %8, ptr %15, align 8, !tbaa !19
  call void @llvm.lifetime.start.p0(i64 16, ptr %16) #7
  %32 = getelementptr inbounds nuw { double, double }, ptr %12, i32 0, i32 0
  %33 = load double, ptr %32, align 8
  %34 = getelementptr inbounds nuw { double, double }, ptr %12, i32 0, i32 1
  %35 = load double, ptr %34, align 8
  %36 = getelementptr inbounds nuw { double, double }, ptr %11, i32 0, i32 0
  %37 = load double, ptr %36, align 8
  %38 = getelementptr inbounds nuw { double, double }, ptr %11, i32 0, i32 1
  %39 = load double, ptr %38, align 8
  %40 = call { double, double } @sub_pointf(double %33, double %35, double %37, double %39)
  %41 = getelementptr inbounds nuw { double, double }, ptr %16, i32 0, i32 0
  %42 = extractvalue { double, double } %40, 0
  store double %42, ptr %41, align 8
  %43 = getelementptr inbounds nuw { double, double }, ptr %16, i32 0, i32 1
  %44 = extractvalue { double, double } %40, 1
  store double %44, ptr %43, align 8
  call void @llvm.lifetime.start.p0(i64 16, ptr %17) #7
  %45 = getelementptr inbounds nuw { double, double }, ptr %14, i32 0, i32 0
  %46 = load double, ptr %45, align 8
  %47 = getelementptr inbounds nuw { double, double }, ptr %14, i32 0, i32 1
  %48 = load double, ptr %47, align 8
  %49 = getelementptr inbounds nuw { double, double }, ptr %13, i32 0, i32 0
  %50 = load double, ptr %49, align 8
  %51 = getelementptr inbounds nuw { double, double }, ptr %13, i32 0, i32 1
  %52 = load double, ptr %51, align 8
  %53 = call { double, double } @sub_pointf(double %46, double %48, double %50, double %52)
  %54 = getelementptr inbounds nuw { double, double }, ptr %17, i32 0, i32 0
  %55 = extractvalue { double, double } %53, 0
  store double %55, ptr %54, align 8
  %56 = getelementptr inbounds nuw { double, double }, ptr %17, i32 0, i32 1
  %57 = extractvalue { double, double } %53, 1
  store double %57, ptr %56, align 8
  call void @llvm.lifetime.start.p0(i64 16, ptr %18) #7
  %58 = getelementptr inbounds nuw { double, double }, ptr %17, i32 0, i32 0
  %59 = load double, ptr %58, align 8
  %60 = getelementptr inbounds nuw { double, double }, ptr %17, i32 0, i32 1
  %61 = load double, ptr %60, align 8
  %62 = call { double, double } @perp(double %59, double %61)
  %63 = getelementptr inbounds nuw { double, double }, ptr %18, i32 0, i32 0
  %64 = extractvalue { double, double } %62, 0
  store double %64, ptr %63, align 8
  %65 = getelementptr inbounds nuw { double, double }, ptr %18, i32 0, i32 1
  %66 = extractvalue { double, double } %62, 1
  store double %66, ptr %65, align 8
  call void @llvm.lifetime.start.p0(i64 8, ptr %19) #7
  %67 = getelementptr inbounds nuw %struct.pointf_s, ptr %18, i32 0, i32 0
  %68 = load double, ptr %67, align 8, !tbaa !9
  %69 = getelementptr inbounds nuw %struct.pointf_s, ptr %13, i32 0, i32 0
  %70 = load double, ptr %69, align 8, !tbaa !9
  %71 = getelementptr inbounds nuw %struct.pointf_s, ptr %18, i32 0, i32 1
  %72 = load double, ptr %71, align 8, !tbaa !12
  %73 = getelementptr inbounds nuw %struct.pointf_s, ptr %13, i32 0, i32 1
  %74 = load double, ptr %73, align 8, !tbaa !12
  %75 = fmul double %72, %74
  %76 = call double @llvm.fmuladd.f64(double %68, double %70, double %75)
  %77 = fneg double %76
  store double %77, ptr %19, align 8, !tbaa !18
  call void @llvm.lifetime.start.p0(i64 8, ptr %20) #7
  %78 = getelementptr inbounds nuw %struct.pointf_s, ptr %18, i32 0, i32 0
  %79 = load double, ptr %78, align 8, !tbaa !9
  %80 = getelementptr inbounds nuw %struct.pointf_s, ptr %16, i32 0, i32 0
  %81 = load double, ptr %80, align 8, !tbaa !9
  %82 = getelementptr inbounds nuw %struct.pointf_s, ptr %18, i32 0, i32 1
  %83 = load double, ptr %82, align 8, !tbaa !12
  %84 = getelementptr inbounds nuw %struct.pointf_s, ptr %16, i32 0, i32 1
  %85 = load double, ptr %84, align 8, !tbaa !12
  %86 = fmul double %83, %85
  %87 = call double @llvm.fmuladd.f64(double %79, double %81, double %86)
  store double %87, ptr %20, align 8, !tbaa !18
  %88 = load double, ptr %20, align 8, !tbaa !18
  %89 = call double @llvm.fabs.f64(double %88)
  %90 = fcmp olt double %89, 1.000000e-10
  br i1 %90, label %91, label %92

91:                                               ; preds = %9
  store i32 0, ptr %10, align 4
  store i32 1, ptr %21, align 4
  br label %130

92:                                               ; preds = %9
  %93 = load ptr, ptr %15, align 8, !tbaa !19
  call void @llvm.lifetime.start.p0(i64 16, ptr %22) #7
  %94 = getelementptr inbounds nuw %struct.pointf_s, ptr %18, i32 0, i32 0
  %95 = load double, ptr %94, align 8, !tbaa !9
  %96 = getelementptr inbounds nuw %struct.pointf_s, ptr %11, i32 0, i32 0
  %97 = load double, ptr %96, align 8, !tbaa !9
  %98 = getelementptr inbounds nuw %struct.pointf_s, ptr %18, i32 0, i32 1
  %99 = load double, ptr %98, align 8, !tbaa !12
  %100 = getelementptr inbounds nuw %struct.pointf_s, ptr %11, i32 0, i32 1
  %101 = load double, ptr %100, align 8, !tbaa !12
  %102 = fmul double %99, %101
  %103 = call double @llvm.fmuladd.f64(double %95, double %97, double %102)
  %104 = load double, ptr %19, align 8, !tbaa !18
  %105 = fadd double %103, %104
  %106 = load double, ptr %20, align 8, !tbaa !18
  %107 = fdiv double %105, %106
  %108 = getelementptr inbounds nuw { double, double }, ptr %16, i32 0, i32 0
  %109 = load double, ptr %108, align 8
  %110 = getelementptr inbounds nuw { double, double }, ptr %16, i32 0, i32 1
  %111 = load double, ptr %110, align 8
  %112 = call { double, double } @scale(double noundef %107, double %109, double %111)
  %113 = getelementptr inbounds nuw { double, double }, ptr %23, i32 0, i32 0
  %114 = extractvalue { double, double } %112, 0
  store double %114, ptr %113, align 8
  %115 = getelementptr inbounds nuw { double, double }, ptr %23, i32 0, i32 1
  %116 = extractvalue { double, double } %112, 1
  store double %116, ptr %115, align 8
  %117 = getelementptr inbounds nuw { double, double }, ptr %11, i32 0, i32 0
  %118 = load double, ptr %117, align 8
  %119 = getelementptr inbounds nuw { double, double }, ptr %11, i32 0, i32 1
  %120 = load double, ptr %119, align 8
  %121 = getelementptr inbounds nuw { double, double }, ptr %23, i32 0, i32 0
  %122 = load double, ptr %121, align 8
  %123 = getelementptr inbounds nuw { double, double }, ptr %23, i32 0, i32 1
  %124 = load double, ptr %123, align 8
  %125 = call { double, double } @sub_pointf(double %118, double %120, double %122, double %124)
  %126 = getelementptr inbounds nuw { double, double }, ptr %22, i32 0, i32 0
  %127 = extractvalue { double, double } %125, 0
  store double %127, ptr %126, align 8
  %128 = getelementptr inbounds nuw { double, double }, ptr %22, i32 0, i32 1
  %129 = extractvalue { double, double } %125, 1
  store double %129, ptr %128, align 8
  call void @llvm.memcpy.p0.p0.i64(ptr align 8 %93, ptr align 8 %22, i64 16, i1 false), !tbaa.struct !26
  call void @llvm.lifetime.end.p0(i64 16, ptr %22) #7
  store i32 1, ptr %10, align 4
  store i32 1, ptr %21, align 4
  br label %130

130:                                              ; preds = %92, %91
  call void @llvm.lifetime.end.p0(i64 8, ptr %20) #7
  call void @llvm.lifetime.end.p0(i64 8, ptr %19) #7
  call void @llvm.lifetime.end.p0(i64 16, ptr %18) #7
  call void @llvm.lifetime.end.p0(i64 16, ptr %17) #7
  call void @llvm.lifetime.end.p0(i64 16, ptr %16) #7
  %131 = load i32, ptr %10, align 4
  ret i32 %131
}