; Function Attrs: mustprogress nofree norecurse nosync nounwind willreturn memory(argmem: write) uwtable
define range(i32 0, 2) i32 @line_intersect(double %0, double %1, double %2, double %3, double %4, double %5, double %6, double %7, ptr noundef writeonly captures(none) %8) local_unnamed_addr #7 {
  %10 = fsub double %2, %0
  %11 = fsub double %3, %1
  %12 = fsub double %6, %4
  %13 = fsub double %7, %5
  %14 = fneg double %13
  %15 = fmul double %11, %12
  %16 = tail call double @llvm.fmuladd.f64(double %14, double %10, double %15)
  %17 = tail call double @llvm.fabs.f64(double %16)
  %18 = fcmp olt double %17, 1.000000e-10
  br i1 %18, label %30, label %19

19:                                               ; preds = %9
  %20 = fmul double %5, %12
  %21 = tail call double @llvm.fmuladd.f64(double %14, double %4, double %20)
  %22 = fmul double %1, %12
  %23 = tail call double @llvm.fmuladd.f64(double %14, double %0, double %22)
  %24 = fsub double %23, %21
  %25 = fdiv double %24, %16
  %26 = fmul double %10, %25
  %27 = fmul double %11, %25
  %28 = fsub double %0, %26
  %29 = fsub double %1, %27
  store double %28, ptr %8, align 8, !tbaa !17
  %.sroa.4.0..sroa_idx = getelementptr inbounds nuw i8, ptr %8, i64 8
  store double %29, ptr %.sroa.4.0..sroa_idx, align 8, !tbaa !17
  br label %30

30:                                               ; preds = %9, %19
  %.0 = phi i32 [ 1, %19 ], [ 0, %9 ]
  ret i32 %.0
}